target datalayout = "e-m:e-p270:32:32-p271:32:32-p272:64:64-i64:64-i128:128-f80:128-n8:16:32:64-S128"
target triple = "x86_64-unknown-linux-gnu"

@bits_per_packed_pixel = internal constant [16 x i32] [i32 0, i32 1, i32 2, i32 2, i32 4, i32 4, i32 4, i32 4, i32 4, i32 4, i32 4, i32 4, i32 4, i32 4, i32 4, i32 4], align 16

; Function Attrs: nounwind sspstrong uwtable
define internal void @zrle_choose_palette_rle(ptr noundef %vs, i32 noundef %w, i32 noundef %h, ptr noundef %palette, i32 noundef %bpp_out, i32 noundef %runs, i32 noundef %single_pixels, i32 noundef %zywrle_level, ptr noundef %use_rle, ptr noundef %use_palette) #0 {
entry:
  %vs.addr = alloca ptr, align 8
  %w.addr = alloca i32, align 4
  %h.addr = alloca i32, align 4
  %palette.addr = alloca ptr, align 8
  %bpp_out.addr = alloca i32, align 4
  %runs.addr = alloca i32, align 4
  %single_pixels.addr = alloca i32, align 4
  %zywrle_level.addr = alloca i32, align 4
  %use_rle.addr = alloca ptr, align 8
  %use_palette.addr = alloca ptr, align 8
  %estimated_bytes = alloca i64, align 8
  %plain_rle_bytes = alloca i64, align 8
  %palette_rle_bytes = alloca i32, align 4
  %packed_bytes = alloca i32, align 4
  store ptr %vs, ptr %vs.addr, align 8
  store i32 %w, ptr %w.addr, align 4
  store i32 %h, ptr %h.addr, align 4
  store ptr %palette, ptr %palette.addr, align 8
  store i32 %bpp_out, ptr %bpp_out.addr, align 4
  store i32 %runs, ptr %runs.addr, align 4
  store i32 %single_pixels, ptr %single_pixels.addr, align 4
  store i32 %zywrle_level, ptr %zywrle_level.addr, align 4
  store ptr %use_rle, ptr %use_rle.addr, align 8
  store ptr %use_palette, ptr %use_palette.addr, align 8
  %0 = load ptr, ptr %use_rle.addr, align 8
  store i8 0, ptr %0, align 1
  %1 = load ptr, ptr %use_palette.addr, align 8
  store i8 0, ptr %1, align 1
  %2 = load i32, ptr %w.addr, align 4
  %3 = load i32, ptr %h.addr, align 4
  %mul = mul i32 %2, %3
  %4 = load i32, ptr %bpp_out.addr, align 4
  %div = sdiv i32 %4, 8
  %mul1 = mul i32 %mul, %div
  %conv = sext i32 %mul1 to i64
  store i64 %conv, ptr %estimated_bytes, align 8
  %5 = load i32, ptr %bpp_out.addr, align 4
  %cmp = icmp ne i32 %5, 8
  br i1 %cmp, label %if.then, label %if.end6

if.then:                                          ; preds = %entry
  %6 = load i32, ptr %zywrle_level.addr, align 4
  %cmp3 = icmp sgt i32 %6, 0
  br i1 %cmp3, label %land.lhs.true, label %if.end

land.lhs.true:                                    ; preds = %if.then
  %7 = load i32, ptr %zywrle_level.addr, align 4
  %and = and i32 %7, 128
  %tobool = icmp ne i32 %and, 0
  br i1 %tobool, label %if.end, label %if.then5

if.then5:                                         ; preds = %land.lhs.true
  %8 = load i32, ptr %zywrle_level.addr, align 4
  %9 = load i64, ptr %estimated_bytes, align 8
  %sh_prom = zext i32 %8 to i64
  %shr = lshr i64 %9, %sh_prom
  store i64 %shr, ptr %estimated_bytes, align 8
  br label %if.end

if.end:                                           ; preds = %if.then5, %land.lhs.true, %if.then
  br label %if.end6

if.end6:                                          ; preds = %if.end, %entry
  %10 = load i32, ptr %bpp_out.addr, align 4
  %div7 = sdiv i32 %10, 8
  %add = add i32 %div7, 1
  %11 = load i32, ptr %runs.addr, align 4
  %12 = load i32, ptr %single_pixels.addr, align 4
  %add8 = add i32 %11, %12
  %mul9 = mul i32 %add, %add8
  %conv10 = sext i32 %mul9 to i64
  store i64 %conv10, ptr %plain_rle_bytes, align 8
  %13 = load i64, ptr %plain_rle_bytes, align 8
  %14 = load i64, ptr %estimated_bytes, align 8
  %cmp11 = icmp ult i64 %13, %14
  br i1 %cmp11, label %if.then13, label %if.end14

if.then13:                                        ; preds = %if.end6
  %15 = load ptr, ptr %use_rle.addr, align 8
  store i8 1, ptr %15, align 1
  %16 = load i64, ptr %plain_rle_bytes, align 8
  store i64 %16, ptr %estimated_bytes, align 8
  br label %if.end14

if.end14:                                         ; preds = %if.then13, %if.end6
  %17 = load ptr, ptr %palette.addr, align 8
  %call = call i64 @palette_size(ptr noundef %17)
  %cmp15 = icmp ult i64 %call, 128
  br i1 %cmp15, label %if.then17, label %if.end52

if.then17:                                        ; preds = %if.end14
  %18 = load i32, ptr %bpp_out.addr, align 4
  %div18 = sdiv i32 %18, 8
  %conv19 = sext i32 %div18 to i64
  %19 = load ptr, ptr %palette.addr, align 8
  %call20 = call i64 @palette_size(ptr noundef %19)
  %mul21 = mul i64 %conv19, %call20
  %conv22 = trunc i64 %mul21 to i32
  store i32 %conv22, ptr %palette_rle_bytes, align 4
  %20 = load i32, ptr %runs.addr, align 4
  %mul23 = mul i32 2, %20
  %21 = load i32, ptr %single_pixels.addr, align 4
  %add24 = add i32 %mul23, %21
  %22 = load i32, ptr %palette_rle_bytes, align 4
  %add25 = add i32 %22, %add24
  store i32 %add25, ptr %palette_rle_bytes, align 4
  %23 = load i32, ptr %palette_rle_bytes, align 4
  %conv26 = sext i32 %23 to i64
  %24 = load i64, ptr %estimated_bytes, align 8
  %cmp27 = icmp ult i64 %conv26, %24
  br i1 %cmp27, label %if.then29, label %if.end31

if.then29:                                        ; preds = %if.then17
  %25 = load ptr, ptr %use_rle.addr, align 8
  store i8 1, ptr %25, align 1
  %26 = load ptr, ptr %use_palette.addr, align 8
  store i8 1, ptr %26, align 1
  %27 = load i32, ptr %palette_rle_bytes, align 4
  %conv30 = sext i32 %27 to i64
  store i64 %conv30, ptr %estimated_bytes, align 8
  br label %if.end31

if.end31:                                         ; preds = %if.then29, %if.then17
  %28 = load ptr, ptr %palette.addr, align 8
  %call32 = call i64 @palette_size(ptr noundef %28)
  %cmp33 = icmp ult i64 %call32, 17
  br i1 %cmp33, label %if.then35, label %if.end51

if.then35:                                        ; preds = %if.end31
  %29 = load i32, ptr %bpp_out.addr, align 4
  %div36 = sdiv i32 %29, 8
  %conv37 = sext i32 %div36 to i64
  %30 = load ptr, ptr %palette.addr, align 8
  %call38 = call i64 @palette_size(ptr noundef %30)
  %mul39 = mul i64 %conv37, %call38
  %conv40 = trunc i64 %mul39 to i32
  store i32 %conv40, ptr %packed_bytes, align 4
  %31 = load i32, ptr %w.addr, align 4
  %32 = load i32, ptr %h.addr, align 4
  %mul41 = mul i32 %31, %32
  %33 = load ptr, ptr %palette.addr, align 8
  %call42 = call i64 @palette_size(ptr noundef %33)
  %sub = sub i64 %call42, 1
  %arrayidx = getelementptr [16 x i32], ptr @bits_per_packed_pixel, i64 0, i64 %sub
  %34 = load i32, ptr %arrayidx, align 4
  %mul43 = mul i32 %mul41, %34
  %div44 = sdiv i32 %mul43, 8
  %35 = load i32, ptr %packed_bytes, align 4
  %add45 = add i32 %35, %div44
  store i32 %add45, ptr %packed_bytes, align 4
  %36 = load i32, ptr %packed_bytes, align 4
  %conv46 = sext i32 %36 to i64
  %37 = load i64, ptr %estimated_bytes, align 8
  %cmp47 = icmp ult i64 %conv46, %37
  br i1 %cmp47, label %if.then49, label %if.end50

if.then49:                                        ; preds = %if.then35
  %38 = load ptr, ptr %use_rle.addr, align 8
  store i8 0, ptr %38, align 1
  %39 = load ptr, ptr %use_palette.addr, align 8
  store i8 1, ptr %39, align 1
  br label %if.end50

if.end50:                                         ; preds = %if.then49, %if.then35
  br label %if.end51

if.end51:                                         ; preds = %if.end50, %if.end31
  br label %if.end52

if.end52:                                         ; preds = %if.end51, %if.end14
  ret void
}