; Function Attrs: nounwind sspstrong uwtable
define internal fastcc void @zrle_choose_palette_rle(i32 noundef %w, i32 noundef %h, ptr noundef %palette, i32 noundef range(i32 8, 33) %bpp_out, i32 noundef %runs, i32 noundef %single_pixels, i32 noundef range(i32 0, 256) %zywrle_level, ptr noundef nonnull writeonly captures(none) initializes((0, 1)) %use_rle, ptr noundef nonnull writeonly captures(none) initializes((0, 1)) %use_palette) unnamed_addr #0 {
entry:
  store i8 0, ptr %use_rle, align 1
  store i8 0, ptr %use_palette, align 1
  %mul = mul i32 %h, %w
  %div27 = lshr i32 %bpp_out, 3
  %mul1 = mul i32 %div27, %mul
  %conv = sext i32 %mul1 to i64
  %cmp = icmp ne i32 %bpp_out, 8
  %cmp3 = icmp ne i32 %zywrle_level, 0
  %or.cond = and i1 %cmp, %cmp3
  %tobool.not = icmp samesign ult i32 %zywrle_level, 128
  %or.cond28 = select i1 %or.cond, i1 %tobool.not, i1 false
  %sh_prom = zext nneg i32 %zywrle_level to i64
  %shr = select i1 %or.cond28, i64 %sh_prom, i64 0
  %estimated_bytes.0 = lshr i64 %conv, %shr
  %add = add nuw nsw i32 %div27, 1
  %add8 = add i32 %single_pixels, %runs
  %mul9 = mul i32 %add8, %add
  %conv10 = sext i32 %mul9 to i64
  %cmp11 = icmp ugt i64 %estimated_bytes.0, %conv10
  br i1 %cmp11, label %if.then13, label %if.end14

if.then13:                                        ; preds = %entry
  store i8 1, ptr %use_rle, align 1
  br label %if.end14

if.end14:                                         ; preds = %if.then13, %entry
  %estimated_bytes.1 = phi i64 [ %conv10, %if.then13 ], [ %estimated_bytes.0, %entry ]
  %call = tail call i64 @palette_size(ptr noundef %palette) #9
  %cmp15 = icmp ult i64 %call, 128
  br i1 %cmp15, label %if.then17, label %if.end52

if.then17:                                        ; preds = %if.end14
  %call20 = tail call i64 @palette_size(ptr noundef %palette) #9
  %0 = trunc i64 %call20 to i32
  %conv22 = mul i32 %div27, %0
  %mul23 = shl i32 %runs, 1
  %add24 = add i32 %mul23, %single_pixels
  %add25 = add i32 %add24, %conv22
  %conv26 = sext i32 %add25 to i64
  %cmp27 = icmp ugt i64 %estimated_bytes.1, %conv26
  br i1 %cmp27, label %if.then29, label %if.end31

if.then29:                                        ; preds = %if.then17
  store i8 1, ptr %use_rle, align 1
  store i8 1, ptr %use_palette, align 1
  br label %if.end31

if.end31:                                         ; preds = %if.then29, %if.then17
  %estimated_bytes.2 = phi i64 [ %conv26, %if.then29 ], [ %estimated_bytes.1, %if.then17 ]
  %call32 = tail call i64 @palette_size(ptr noundef %palette) #9
  %cmp33 = icmp ult i64 %call32, 17
  br i1 %cmp33, label %if.then35, label %if.end52

if.then35:                                        ; preds = %if.end31
  %call38 = tail call i64 @palette_size(ptr noundef %palette) #9
  %1 = trunc i64 %call38 to i32
  %conv40 = mul i32 %div27, %1
  %call42 = tail call i64 @palette_size(ptr noundef %palette) #9
  %sub = add i64 %call42, -1
  %arrayidx = getelementptr [16 x i32], ptr @bits_per_packed_pixel, i64 0, i64 %sub
  %2 = load i32, ptr %arrayidx, align 4
  %mul43 = mul i32 %2, %mul
  %div44 = sdiv i32 %mul43, 8
  %add45 = add i32 %div44, %conv40
  %conv46 = sext i32 %add45 to i64
  %cmp47 = icmp ugt i64 %estimated_bytes.2, %conv46
  br i1 %cmp47, label %if.then49, label %if.end52

if.then49:                                        ; preds = %if.then35
  store i8 0, ptr %use_rle, align 1
  store i8 1, ptr %use_palette, align 1
  br label %if.end52

if.end52:                                         ; preds = %if.end31, %if.then49, %if.then35, %if.end14
  ret void
}